; Function Attrs: nounwind uwtable
define nonnull ptr @l_Lean_LocalDecl_binderInfoEx___boxed(ptr noundef %0) local_unnamed_addr #2 {
  %2 = ptrtoint ptr %0 to i64
  %3 = and i64 %2, 1
  %.not.i9.i = icmp eq i64 %3, 0
  br i1 %.not.i9.i, label %lean_obj_tag.exit.thread.i, label %lean_obj_tag.exit.i

lean_obj_tag.exit.i:                              ; preds = %1
  %4 = and i64 %2, 8589934590
  %5 = icmp eq i64 %4, 0
  br i1 %5, label %8, label %lean_local_decl_binder_info.exit

lean_obj_tag.exit.thread.i:                       ; preds = %1
  %6 = getelementptr i8, ptr %0, i64 4
  %.val.i.i = load i32, ptr %6, align 4
  %7 = icmp ult i32 %.val.i.i, 16777216
  br i1 %7, label %11, label %.thread11.i

8:                                                ; preds = %lean_obj_tag.exit.i
  %9 = getelementptr inbounds nuw i8, ptr %0, i64 40
  %10 = load i8, ptr %9, align 1, !tbaa !18
  br label %lean_local_decl_binder_info.exit

11:                                               ; preds = %lean_obj_tag.exit.thread.i
  %12 = getelementptr inbounds nuw i8, ptr %0, i64 40
  %13 = load i8, ptr %12, align 1, !tbaa !18
  %14 = load i32, ptr %0, align 4, !tbaa !4
  %15 = icmp sgt i32 %14, 1
  br i1 %15, label %16, label %18, !prof !11

16:                                               ; preds = %11
  %17 = add nsw i32 %14, -1
  store i32 %17, ptr %0, align 4, !tbaa !4
  br label %lean_local_decl_binder_info.exit

18:                                               ; preds = %11
  %.not.i.i = icmp eq i32 %14, 0
  br i1 %.not.i.i, label %lean_local_decl_binder_info.exit, label %19

19:                                               ; preds = %18
  tail call void @lean_dec_ref_cold(ptr noundef nonnull %0) #8
  br label %lean_local_decl_binder_info.exit

.thread11.i:                                      ; preds = %lean_obj_tag.exit.thread.i
  %20 = load i32, ptr %0, align 4, !tbaa !4
  %21 = icmp sgt i32 %20, 1
  br i1 %21, label %22, label %24, !prof !11

22:                                               ; preds = %.thread11.i
  %23 = add nsw i32 %20, -1
  store i32 %23, ptr %0, align 4, !tbaa !4
  br label %lean_local_decl_binder_info.exit

24:                                               ; preds = %.thread11.i
  %.not.i7.i = icmp eq i32 %20, 0
  br i1 %.not.i7.i, label %lean_local_decl_binder_info.exit, label %25

25:                                               ; preds = %24
  tail call void @lean_dec_ref_cold(ptr noundef nonnull %0) #8
  br label %lean_local_decl_binder_info.exit

lean_local_decl_binder_info.exit:                 ; preds = %lean_obj_tag.exit.i, %8, %16, %18, %19, %22, %24, %25
  %.0.i = phi i8 [ %10, %8 ], [ %13, %16 ], [ %13, %18 ], [ %13, %19 ], [ 0, %25 ], [ 0, %24 ], [ 0, %22 ], [ 0, %lean_obj_tag.exit.i ]
  %26 = zext i8 %.0.i to i64
  %27 = shl nuw nsw i64 %26, 1
  %28 = or disjoint i64 %27, 1
  %29 = inttoptr i64 %28 to ptr
  ret ptr %29
}